; Function Attrs: nounwind uwtable
define dso_local void @WriteDataChunksForTocEntry(ptr noundef initializes((536, 544)) %0, ptr noundef %1) local_unnamed_addr #0 {
  %3 = getelementptr inbounds nuw i8, ptr %0, i64 536
  store ptr %1, ptr %3, align 8
  %4 = getelementptr inbounds nuw i8, ptr %1, i64 88
  %5 = load ptr, ptr %4, align 8
  %6 = tail call i32 @strcmp(ptr noundef nonnull dereferenceable(1) %5, ptr noundef nonnull dereferenceable(6) @.str.87) #24
  %7 = icmp eq i32 %6, 0
  %.019.in.v = select i1 %7, i64 328, i64 224
  %.019.in = getelementptr inbounds nuw i8, ptr %0, i64 %.019.in.v
  %.0.in.v = select i1 %7, i64 336, i64 240
  %.0.in = getelementptr inbounds nuw i8, ptr %0, i64 %.0.in.v
  %.0 = load ptr, ptr %.0.in, align 8
  %.019 = load ptr, ptr %.019.in, align 8
  %.not = icmp eq ptr %.019, null
  br i1 %.not, label %9, label %8

8:                                                ; preds = %2
  tail call void %.019(ptr noundef nonnull %0, ptr noundef nonnull %1) #22
  br label %9

9:                                                ; preds = %8, %2
  %10 = getelementptr inbounds nuw i8, ptr %1, i64 136
  %11 = load ptr, ptr %10, align 8
  %12 = getelementptr inbounds nuw i8, ptr %1, i64 144
  %13 = load ptr, ptr %12, align 8
  %14 = tail call i32 %11(ptr noundef nonnull %0, ptr noundef %13) #22
  %.not20 = icmp eq ptr %.0, null
  br i1 %.not20, label %16, label %15

15:                                               ; preds = %9
  tail call void %.0(ptr noundef nonnull %0, ptr noundef nonnull %1) #22
  br label %16

16:                                               ; preds = %15, %9
  store ptr null, ptr %3, align 8
  ret void
}